; Function Attrs: cold nounwind optsize uwtable
define internal void @flush(ptr noundef %0) #0 {
  %2 = getelementptr inbounds nuw i8, ptr %0, i64 32
  %3 = load ptr, ptr %2, align 8, !tbaa !4
  %4 = getelementptr inbounds nuw i8, ptr %3, i64 4896
  store i32 0, ptr %4, align 8, !tbaa !100
  %5 = getelementptr inbounds nuw i8, ptr %3, i64 4900
  store i32 0, ptr %5, align 4, !tbaa !101
  %6 = getelementptr inbounds nuw i8, ptr %3, i64 4840
  tail call void @av_buffer_unref(ptr noundef nonnull %6) #12
  tail call void @ff_mpeg_flush(ptr noundef %0) #12
  ret void
}